; Function Attrs: nounwind uwtable
define hidden void @zif_memory_reset_peak_usage(ptr nocapture noundef readonly %0, ptr nocapture noundef readnone %1) local_unnamed_addr #0 {
  %3 = getelementptr inbounds i8, ptr %0, i64 44
  %4 = load i32, ptr %3, align 4
  %.not = icmp eq i32 %4, 0
  br i1 %.not, label %6, label %5

5:                                                ; preds = %2
  tail call void @zend_wrong_parameters_none_error() #12
  br label %7

6:                                                ; preds = %2
  tail call void @zend_memory_reset_peak_usage() #12
  br label %7

7:                                                ; preds = %6, %5
  ret void
}